; Function Attrs: nounwind uwtable
define internal fastcc void @write_help_msg(i32 noundef %0, ptr noundef nonnull %1, ptr noundef %2, ptr noundef nonnull %3) unnamed_addr #0 {
  %5 = icmp eq ptr %2, null
  br i1 %5, label %36, label %6

6:                                                ; preds = %4
  %7 = tail call ptr @pmix_show_help_vstring(ptr noundef nonnull @.str.6, ptr noundef nonnull %2, i32 noundef 1, ptr noundef nonnull %3) #18
  %8 = getelementptr inbounds nuw i8, ptr %1, i64 8
  store i32 21, ptr %8, align 4, !tbaa !96
  %9 = tail call i64 @strlen(ptr noundef nonnull dereferenceable(1) %2) #27
  %10 = trunc i64 %9 to i32
  %11 = getelementptr inbounds nuw i8, ptr %1, i64 12
  store i32 %10, ptr %11, align 4, !tbaa !103
  %12 = icmp sgt i32 %10, 511
  br i1 %12, label %13, label %15

13:                                               ; preds = %6
  %14 = tail call ptr @PMIx_Error_string(i32 noundef -27) #18
  tail call void (i32, ptr, ...) @pmix_output(i32 noundef 0, ptr noundef nonnull @.str.4, ptr noundef %14, ptr noundef nonnull @.str.5, i32 noundef 255) #18
  br label %36

15:                                               ; preds = %6
  %16 = tail call i64 @strlen(ptr noundef nonnull dereferenceable(1) %7) #27
  %17 = trunc i64 %16 to i32
  %18 = getelementptr inbounds nuw i8, ptr %1, i64 16
  store i32 %17, ptr %18, align 4, !tbaa !104
  %19 = tail call i32 @pmix_fd_write(i32 noundef %0, i32 noundef 20, ptr noundef nonnull %1) #18
  %.not = icmp eq i32 %19, 0
  br i1 %.not, label %20, label %35

20:                                               ; preds = %15
  %21 = load i32, ptr %8, align 4, !tbaa !96
  %22 = icmp sgt i32 %21, 0
  br i1 %22, label %23, label %25

23:                                               ; preds = %20
  %24 = tail call i32 @pmix_fd_write(i32 noundef %0, i32 noundef %21, ptr noundef nonnull @.str.6) #18
  %.not42 = icmp eq i32 %24, 0
  br i1 %.not42, label %25, label %35

25:                                               ; preds = %23, %20
  %26 = load i32, ptr %11, align 4, !tbaa !103
  %27 = icmp sgt i32 %26, 0
  br i1 %27, label %28, label %30

28:                                               ; preds = %25
  %29 = tail call i32 @pmix_fd_write(i32 noundef %0, i32 noundef %26, ptr noundef nonnull %2) #18
  %.not43 = icmp eq i32 %29, 0
  br i1 %.not43, label %30, label %35

30:                                               ; preds = %28, %25
  %31 = load i32, ptr %18, align 4, !tbaa !104
  %32 = icmp sgt i32 %31, 0
  br i1 %32, label %33, label %35

33:                                               ; preds = %30
  %34 = tail call i32 @pmix_fd_write(i32 noundef %0, i32 noundef %31, ptr noundef nonnull %7) #18
  br label %35

35:                                               ; preds = %33, %30, %28, %23, %15
  tail call void @free(ptr noundef nonnull %7) #18
  br label %36

36:                                               ; preds = %4, %35, %13
  ret void
}